target datalayout = "e-m:e-p270:32:32-p271:32:32-p272:64:64-i64:64-i128:128-f80:128-n8:16:32:64-S128"
target triple = "x86_64-pc-linux-gnu"

%struct._zend_executor_globals = type { %struct._zval_struct, %struct._zval_struct, [32 x ptr], ptr, ptr, %struct._zend_array, %struct._zend_array, ptr, i32, i32, ptr, ptr, ptr, ptr, ptr, ptr, i64, ptr, ptr, i32, i32, i64, i32, i32, i32, i8, i8, %struct.zend_atomic_bool_s, %struct.zend_atomic_bool_s, ptr, i64, ptr, ptr, %struct._zend_array, %struct._zend_array, i32, i8, %struct._zval_struct, %struct._zval_struct, %struct._zend_stack, %struct._zend_stack, %struct._zend_stack, ptr, i32, i32, i64, ptr, ptr, ptr, %struct._zend_objects_store, ptr, ptr, ptr, [3 x %struct._zend_op], ptr, i8, i8, i64, i32, i32, ptr, [16 x %struct._HashTableIterator], ptr, %union._zend_function, %struct._zend_op, %struct._zend_array, i64, %struct.zend_get_gc_buffer, ptr, ptr, ptr, i64, i8, i32, ptr, ptr, i64, %struct._zend_call_stack, i64, i64, [6 x ptr] }
%struct.zend_atomic_bool_s = type { i8 }
%struct._zval_struct = type { %union._zend_value, %union.anon.2, %union.anon.5 }
%union._zend_value = type { i64 }
%union.anon.2 = type { i32 }
%union.anon.5 = type { i32 }
%struct._zend_stack = type { i32, i32, i32, ptr }
%struct._zend_objects_store = type { ptr, i32, i32, i32 }
%struct._HashTableIterator = type { ptr, i32, i32 }
%union._zend_function = type { %struct._zend_op_array }
%struct._zend_op_array = type { i8, [3 x i8], i32, ptr, ptr, ptr, i32, i32, ptr, ptr, ptr, ptr, i32, i32, i32, i32, ptr, ptr, ptr, ptr, ptr, i32, i32, ptr, ptr, ptr, i32, i32, i32, i32, ptr, ptr, [6 x ptr] }
%struct._zend_op = type { ptr, %union._znode_op, %union._znode_op, %union._znode_op, i32, i32, i8, i8, i8, i8 }
%union._znode_op = type { i32 }
%struct._zend_array = type { %struct._zend_refcounted_h, %union.anon.7, i32, %union.anon.9, i32, i32, i32, i32, i64, ptr }
%struct._zend_refcounted_h = type { i32, %union.anon.6 }
%union.anon.6 = type { i32 }
%union.anon.7 = type { i32 }
%union.anon.9 = type { ptr }
%struct.zend_get_gc_buffer = type { ptr, ptr, ptr }
%struct._zend_call_stack = type { ptr, i64 }
%struct._spl_filesystem_object = type { ptr, ptr, ptr, ptr, ptr, i32, i64, ptr, ptr, %union.anon, %struct._zend_object }
%union.anon = type { %struct.anon }
%struct.anon = type { ptr, ptr, i32, ptr, ptr, ptr, %struct._php_stream_dirent }
%struct._php_stream_dirent = type { [256 x i8], i8 }
%struct._zend_object = type { %struct._zend_refcounted_h, i32, ptr, ptr, ptr, [1 x %struct._zval_struct] }
%struct._zend_execute_data = type { ptr, ptr, ptr, ptr, %struct._zval_struct, ptr, ptr, ptr, ptr }

@executor_globals = external global %struct._zend_executor_globals, align 8
@.str = private unnamed_addr constant [23 x i8] c"Object not initialized\00", align 1

; Function Attrs: nounwind uwtable
define internal ptr @spl_filesystem_from_obj(ptr noundef %0) #0 {
  %2 = alloca ptr, align 8
  store ptr %0, ptr %2, align 8
  %3 = load ptr, ptr %2, align 8
  %4 = getelementptr inbounds i8, ptr %3, i64 -384
  ret ptr %4
}

; Function Attrs: nounwind uwtable
define hidden void @zim_DirectoryIterator_current(ptr noundef %0, ptr noundef %1) #0 {
  %3 = alloca ptr, align 8
  %4 = alloca ptr, align 8
  %5 = alloca ptr, align 8
  %6 = alloca ptr, align 8
  %7 = alloca ptr, align 8
  store ptr %0, ptr %4, align 8
  store ptr %1, ptr %5, align 8
  %8 = load ptr, ptr %4, align 8
  %9 = getelementptr inbounds %struct._zend_execute_data, ptr %8, i32 0, i32 4
  %10 = getelementptr inbounds %struct._zval_struct, ptr %9, i32 0, i32 2
  %11 = load i32, ptr %10, align 4
  %12 = icmp eq i32 %11, 0
  %13 = xor i1 %12, true
  %14 = xor i1 %13, true
  %15 = zext i1 %14 to i32
  %16 = sext i32 %15 to i64
  %17 = icmp ne i64 %16, 0
  br i1 %17, label %18, label %19

18:                                               ; preds = %2
  br label %20

19:                                               ; preds = %2
  call void @zend_wrong_parameters_none_error()
  br label %20

20:                                               ; preds = %19, %18
  %21 = phi i32 [ 0, %18 ], [ -1, %19 ]
  %22 = icmp eq i32 %21, -1
  br i1 %22, label %23, label %28

23:                                               ; preds = %20
  br label %24

24:                                               ; preds = %23
  %25 = load ptr, ptr getelementptr inbounds (%struct._zend_executor_globals, ptr @executor_globals, i32 0, i32 50), align 8
  %26 = icmp ne ptr %25, null
  call void @llvm.assume(i1 %26)
  br label %62

27:                                               ; No predecessors!
  br label %28

28:                                               ; preds = %27, %20
  %29 = load ptr, ptr %4, align 8
  %30 = getelementptr inbounds %struct._zend_execute_data, ptr %29, i32 0, i32 4
  %31 = getelementptr inbounds %struct._zval_struct, ptr %30, i32 0, i32 0
  %32 = load ptr, ptr %31, align 8
  %33 = call ptr @spl_filesystem_from_obj(ptr noundef %32)
  %34 = getelementptr inbounds %struct._spl_filesystem_object, ptr %33, i32 0, i32 9
  %35 = getelementptr inbounds %struct.anon, ptr %34, i32 0, i32 0
  %36 = load ptr, ptr %35, align 8
  %37 = icmp ne ptr %36, null
  br i1 %37, label %43, label %38

38:                                               ; preds = %28
  call void (ptr, ptr, ...) @zend_throw_error(ptr noundef null, ptr noundef @.str)
  br label %39

39:                                               ; preds = %38
  %40 = load ptr, ptr getelementptr inbounds (%struct._zend_executor_globals, ptr @executor_globals, i32 0, i32 50), align 8
  %41 = icmp ne ptr %40, null
  call void @llvm.assume(i1 %41)
  br label %62

42:                                               ; No predecessors!
  br label %43

43:                                               ; preds = %42, %28
  br label %44

44:                                               ; preds = %43
  br label %45

45:                                               ; preds = %44
  %46 = load ptr, ptr %5, align 8
  store ptr %46, ptr %6, align 8
  %47 = load ptr, ptr %4, align 8
  %48 = getelementptr inbounds %struct._zend_execute_data, ptr %47, i32 0, i32 4
  %49 = getelementptr inbounds %struct._zval_struct, ptr %48, i32 0, i32 0
  %50 = load ptr, ptr %49, align 8
  store ptr %50, ptr %7, align 8
  %51 = load ptr, ptr %7, align 8
  %52 = getelementptr inbounds %struct._zend_object, ptr %51, i32 0, i32 0
  store ptr %52, ptr %3, align 8
  %53 = load ptr, ptr %3, align 8
  %54 = load i32, ptr %53, align 4
  %55 = add i32 %54, 1
  store i32 %55, ptr %53, align 4
  %56 = load ptr, ptr %7, align 8
  %57 = load ptr, ptr %6, align 8
  %58 = getelementptr inbounds %struct._zval_struct, ptr %57, i32 0, i32 0
  store ptr %56, ptr %58, align 8
  %59 = load ptr, ptr %6, align 8
  %60 = getelementptr inbounds %struct._zval_struct, ptr %59, i32 0, i32 1
  store i32 776, ptr %60, align 8
  br label %61

61:                                               ; preds = %45
  br label %62

62:                                               ; preds = %61, %39, %24
  ret void
}