; Function Attrs: nounwind uwtable
define hidden void @zim_DirectoryIterator_current(ptr nocapture noundef readonly %0, ptr nocapture noundef writeonly %1) #0 {
  %3 = getelementptr inbounds i8, ptr %0, i64 44
  %4 = load i32, ptr %3, align 4
  %.not = icmp eq i32 %4, 0
  br i1 %.not, label %.critedge, label %5

5:                                                ; preds = %2
  tail call void @zend_wrong_parameters_none_error() #18
  %6 = load ptr, ptr getelementptr inbounds (%struct._zend_executor_globals, ptr @executor_globals, i64 0, i32 50), align 8
  %7 = icmp ne ptr %6, null
  tail call void @llvm.assume(i1 %7)
  br label %19

.critedge:                                        ; preds = %2
  %8 = getelementptr inbounds i8, ptr %0, i64 32
  %9 = load ptr, ptr %8, align 8
  %10 = getelementptr inbounds i8, ptr %9, i64 -312
  %11 = load ptr, ptr %10, align 8
  %.not9 = icmp eq ptr %11, null
  br i1 %.not9, label %12, label %15

12:                                               ; preds = %.critedge
  tail call void (ptr, ptr, ...) @zend_throw_error(ptr noundef null, ptr noundef nonnull @.str) #18
  %13 = load ptr, ptr getelementptr inbounds (%struct._zend_executor_globals, ptr @executor_globals, i64 0, i32 50), align 8
  %14 = icmp ne ptr %13, null
  tail call void @llvm.assume(i1 %14)
  br label %19

15:                                               ; preds = %.critedge
  %16 = load i32, ptr %9, align 4
  %17 = add i32 %16, 1
  store i32 %17, ptr %9, align 4
  store ptr %9, ptr %1, align 8
  %18 = getelementptr inbounds i8, ptr %1, i64 8
  store i32 776, ptr %18, align 8
  br label %19

19:                                               ; preds = %15, %12, %5
  ret void
}